target datalayout = "e-m:e-p270:32:32-p271:32:32-p272:64:64-i64:64-i128:128-f80:128-n8:16:32:64-S128"
target triple = "x86_64-pc-linux-gnu"

%struct.AVRational = type { i32, i32 }
%struct.AVCodecContext = type { ptr, i32, i32, ptr, i32, i32, ptr, ptr, ptr, i64, i32, i32, ptr, i32, %struct.AVRational, %struct.AVRational, %struct.AVRational, i32, i32, i32, i32, i32, %struct.AVRational, i32, i32, i32, i32, i32, i32, i32, i32, i32, i32, i32, ptr, ptr, i32, float, float, float, float, float, float, float, float, float, i32, i32, i32, i32, i32, i32, i32, i32, i32, i32, i32, i32, ptr, ptr, ptr, i32, i32, i32, i32, i32, i32, i32, i32, i32, i32, %struct.AVChannelLayout, i32, i32, i32, i32, i32, i32, i32, i32, ptr, i32, i32, i32, float, float, i32, i32, i32, i32, i32, ptr, i64, i64, float, float, i32, i32, ptr, ptr, i32, i32, i32, i32, i32, ptr, ptr, ptr, ptr, i32, i32, [8 x i64], i32, i32, i32, i32, i32, i32, i32, ptr, ptr, i32, i32, i32, i32, i32, i32, i32, i32, i32, i32, ptr, ptr, i32, i32, ptr, ptr, ptr, ptr, i32, i32, i64, i32, i32, i64, ptr, i64, ptr, i32, ptr, i32 }
%struct.AVChannelLayout = type { i32, i32, %union.anon.0, ptr }
%union.anon.0 = type { i64 }
%struct.H261DecContext = type { %struct.MpegEncContext, %struct.H261Context, i32, i32, i32, i32, i32, i32 }
%struct.MpegEncContext = type { ptr, i32, i32, i32, [12 x i32], i32, %struct.ScanTable, %struct.ScanTable, [64 x i8], [64 x i8], ptr, ptr, i32, i32, i32, i32, i32, i32, i32, i32, i32, i32, i32, i32, i32, i32, i32, i32, i32, i32, i32, i32, i64, i64, ptr, %struct.BufferPoolContext, i32, i32, %union.anon.1, i32, %struct.MPVWorkPicture, %struct.MPVWorkPicture, %struct.MPVWorkPicture, i32, [3 x i32], ptr, [3 x ptr], ptr, ptr, ptr, ptr, ptr, ptr, [3 x ptr], i32, ptr, ptr, ptr, ptr, %struct.ScratchpadContext, i32, i32, i32, i32, i32, i32, %struct.BlockDSPContext, %struct.H264ChromaContext, %struct.HpelDSPContext, %struct.IDCTDSPContext, %struct.QpelDSPContext, %struct.VideoDSPContext, %struct.H263DSPContext, ptr, [2 x [2 x ptr]], i32, i32, [2 x [4 x [2 x i32]]], [2 x [2 x i32]], [2 x [2 x [2 x i32]]], [2 x [64 x i16]], i32, i32, i32, i32, i32, [6 x i32], [6 x i32], [3 x ptr], ptr, [64 x i16], [64 x i16], [64 x i16], [64 x i16], i32, i32, %struct.GetBitContext, i32, i32, i32, i32, i32, i32, i32, i32, i32, i32, i32, i32, i32, i32, i32, i64, i64, i16, i16, i16, i16, i32, i32, i32, i32, i32, i32, i32, i32, i32, [3 x i32], i32, i32, i32, i32, i32, i32, %struct.GetBitContext, i32, [2 x [2 x i32]], i32, i32, i32, i32, i32, i32, i32, i32, i32, i32, i32, i32, i32, i32, [2 x i32], i32, i32, ptr, ptr, ptr, ptr, ptr, i32, i32, %struct.ERContext }
%struct.ScanTable = type { ptr, [64 x i8], [64 x i8] }
%struct.BufferPoolContext = type { ptr, ptr, ptr, ptr, ptr, i32, i32, i32 }
%union.anon.1 = type { [32 x ptr] }
%struct.MPVWorkPicture = type { [3 x ptr], [3 x i64], ptr, ptr, [2 x ptr], ptr, ptr, [2 x ptr], i32 }
%struct.ScratchpadContext = type { ptr, ptr, %union.anon.2, i32 }
%union.anon.2 = type { ptr }
%struct.BlockDSPContext = type { ptr, ptr, [2 x ptr] }
%struct.H264ChromaContext = type { [4 x ptr], [4 x ptr] }
%struct.HpelDSPContext = type { [4 x [4 x ptr]], [4 x [4 x ptr]], [4 x [4 x ptr]], [4 x ptr] }
%struct.IDCTDSPContext = type { ptr, ptr, ptr, ptr, ptr, ptr, [64 x i8], i32, i32 }
%struct.QpelDSPContext = type { [2 x [16 x ptr]], [2 x [16 x ptr]], [2 x [16 x ptr]] }
%struct.VideoDSPContext = type { ptr, ptr }
%struct.H263DSPContext = type { ptr, ptr }
%struct.GetBitContext = type { ptr, ptr, i32, i32, i32 }
%struct.ERContext = type { ptr, ptr, i32, ptr, i32, i32, i32, i64, i64, i32, i32, ptr, ptr, [3 x ptr], ptr, ptr, [2 x [4 x [2 x i32]]], %struct.ERPicture, %struct.ERPicture, %struct.ERPicture, [2 x ptr], [2 x ptr], i16, i16, i32, i32, ptr, ptr }
%struct.ERPicture = type { ptr, ptr, ptr, [2 x ptr], [2 x ptr], ptr, i32 }
%struct.H261Context = type { i32 }

; Function Attrs: inlinehint nounwind uwtable
define internal void @h261_init_dest(ptr noundef %0) #5 {
  %2 = alloca ptr, align 8
  %3 = alloca i32, align 4
  store ptr %0, ptr %2, align 8, !tbaa !31
  call void @llvm.lifetime.start.p0(i64 4, ptr %3) #8
  %4 = load ptr, ptr %2, align 8, !tbaa !31
  %5 = getelementptr inbounds nuw %struct.MpegEncContext, ptr %4, i32 0, i32 10
  %6 = load ptr, ptr %5, align 8, !tbaa !74
  %7 = getelementptr inbounds nuw %struct.AVCodecContext, ptr %6, i32 0, i32 130
  %8 = load i32, ptr %7, align 4, !tbaa !136
  %9 = ashr i32 8, %8
  store i32 %9, ptr %3, align 4, !tbaa !36
  %10 = load ptr, ptr %2, align 8, !tbaa !31
  call void @ff_init_block_index(ptr noundef %10)
  %11 = load i32, ptr %3, align 4, !tbaa !36
  %12 = mul i32 2, %11
  %13 = load ptr, ptr %2, align 8, !tbaa !31
  %14 = getelementptr inbounds nuw %struct.MpegEncContext, ptr %13, i32 0, i32 88
  %15 = getelementptr inbounds [3 x ptr], ptr %14, i64 0, i64 0
  %16 = load ptr, ptr %15, align 8, !tbaa !69
  %17 = zext i32 %12 to i64
  %18 = getelementptr inbounds nuw i8, ptr %16, i64 %17
  store ptr %18, ptr %15, align 8, !tbaa !69
  %19 = load i32, ptr %3, align 4, !tbaa !36
  %20 = load ptr, ptr %2, align 8, !tbaa !31
  %21 = getelementptr inbounds nuw %struct.MpegEncContext, ptr %20, i32 0, i32 88
  %22 = getelementptr inbounds [3 x ptr], ptr %21, i64 0, i64 1
  %23 = load ptr, ptr %22, align 8, !tbaa !69
  %24 = zext i32 %19 to i64
  %25 = getelementptr inbounds nuw i8, ptr %23, i64 %24
  store ptr %25, ptr %22, align 8, !tbaa !69
  %26 = load i32, ptr %3, align 4, !tbaa !36
  %27 = load ptr, ptr %2, align 8, !tbaa !31
  %28 = getelementptr inbounds nuw %struct.MpegEncContext, ptr %27, i32 0, i32 88
  %29 = getelementptr inbounds [3 x ptr], ptr %28, i64 0, i64 2
  %30 = load ptr, ptr %29, align 8, !tbaa !69
  %31 = zext i32 %26 to i64
  %32 = getelementptr inbounds nuw i8, ptr %30, i64 %31
  store ptr %32, ptr %29, align 8, !tbaa !69
  call void @llvm.lifetime.end.p0(i64 4, ptr %3) #8
  ret void
}

; Function Attrs: nounwind uwtable
define internal i32 @h261_decode_mb_skipped(ptr noundef %0, i32 noundef %1, i32 noundef %2) #1 {
  %4 = alloca ptr, align 8
  %5 = alloca i32, align 4
  %6 = alloca i32, align 4
  %7 = alloca ptr, align 8
  %8 = alloca i32, align 4
  %9 = alloca i32, align 4
  %10 = alloca i32, align 4
  %11 = alloca i32, align 4
  %12 = alloca i32, align 4
  store ptr %0, ptr %4, align 8, !tbaa !29
  store i32 %1, ptr %5, align 4, !tbaa !36
  store i32 %2, ptr %6, align 4, !tbaa !36
  call void @llvm.lifetime.start.p0(i64 8, ptr %7) #8
  %13 = load ptr, ptr %4, align 8, !tbaa !29
  %14 = getelementptr inbounds nuw %struct.H261DecContext, ptr %13, i32 0, i32 0
  store ptr %14, ptr %7, align 8, !tbaa !31
  call void @llvm.lifetime.start.p0(i64 4, ptr %8) #8
  %15 = load ptr, ptr %7, align 8, !tbaa !31
  %16 = getelementptr inbounds nuw %struct.MpegEncContext, ptr %15, i32 0, i32 85
  store i32 0, ptr %16, align 8, !tbaa !119
  %17 = load i32, ptr %5, align 4, !tbaa !36
  store i32 %17, ptr %8, align 4, !tbaa !36
  br label %18

18:                                               ; preds = %158, %3
  %19 = load i32, ptr %8, align 4, !tbaa !36
  %20 = load i32, ptr %6, align 4, !tbaa !36
  %21 = icmp slt i32 %19, %20
  br i1 %21, label %22, label %161

22:                                               ; preds = %18
  call void @llvm.lifetime.start.p0(i64 4, ptr %9) #8
  call void @llvm.lifetime.start.p0(i64 4, ptr %10) #8
  %23 = load ptr, ptr %4, align 8, !tbaa !29
  %24 = getelementptr inbounds nuw %struct.H261DecContext, ptr %23, i32 0, i32 6
  %25 = load i32, ptr %24, align 4, !tbaa !83
  %26 = sub nsw i32 %25, 1
  %27 = srem i32 %26, 2
  %28 = mul nsw i32 %27, 11
  %29 = load i32, ptr %8, align 4, !tbaa !36
  %30 = srem i32 %29, 11
  %31 = add nsw i32 %28, %30
  %32 = load ptr, ptr %7, align 8, !tbaa !31
  %33 = getelementptr inbounds nuw %struct.MpegEncContext, ptr %32, i32 0, i32 82
  store i32 %31, ptr %33, align 4, !tbaa !81
  %34 = load ptr, ptr %4, align 8, !tbaa !29
  %35 = getelementptr inbounds nuw %struct.H261DecContext, ptr %34, i32 0, i32 6
  %36 = load i32, ptr %35, align 4, !tbaa !83
  %37 = sub nsw i32 %36, 1
  %38 = sdiv i32 %37, 2
  %39 = mul nsw i32 %38, 3
  %40 = load i32, ptr %8, align 4, !tbaa !36
  %41 = sdiv i32 %40, 11
  %42 = add nsw i32 %39, %41
  %43 = load ptr, ptr %7, align 8, !tbaa !31
  %44 = getelementptr inbounds nuw %struct.MpegEncContext, ptr %43, i32 0, i32 83
  store i32 %42, ptr %44, align 8, !tbaa !82
  %45 = load ptr, ptr %7, align 8, !tbaa !31
  %46 = getelementptr inbounds nuw %struct.MpegEncContext, ptr %45, i32 0, i32 82
  %47 = load i32, ptr %46, align 4, !tbaa !81
  %48 = load ptr, ptr %7, align 8, !tbaa !31
  %49 = getelementptr inbounds nuw %struct.MpegEncContext, ptr %48, i32 0, i32 83
  %50 = load i32, ptr %49, align 8, !tbaa !82
  %51 = load ptr, ptr %7, align 8, !tbaa !31
  %52 = getelementptr inbounds nuw %struct.MpegEncContext, ptr %51, i32 0, i32 27
  %53 = load i32, ptr %52, align 4, !tbaa !111
  %54 = mul nsw i32 %50, %53
  %55 = add nsw i32 %47, %54
  store i32 %55, ptr %10, align 4, !tbaa !36
  %56 = load ptr, ptr %7, align 8, !tbaa !31
  call void @h261_init_dest(ptr noundef %56)
  store i32 0, ptr %9, align 4, !tbaa !36
  br label %57

57:                                               ; preds = %66, %22
  %58 = load i32, ptr %9, align 4, !tbaa !36
  %59 = icmp slt i32 %58, 6
  br i1 %59, label %60, label %69

60:                                               ; preds = %57
  %61 = load ptr, ptr %7, align 8, !tbaa !31
  %62 = getelementptr inbounds nuw %struct.MpegEncContext, ptr %61, i32 0, i32 4
  %63 = load i32, ptr %9, align 4, !tbaa !36
  %64 = sext i32 %63 to i64
  %65 = getelementptr inbounds [12 x i32], ptr %62, i64 0, i64 %64
  store i32 -1, ptr %65, align 4, !tbaa !36
  br label %66

66:                                               ; preds = %60
  %67 = load i32, ptr %9, align 4, !tbaa !36
  %68 = add nsw i32 %67, 1
  store i32 %68, ptr %9, align 4, !tbaa !36
  br label %57, !llvm.loop !132

69:                                               ; preds = %57
  %70 = load ptr, ptr %7, align 8, !tbaa !31
  %71 = getelementptr inbounds nuw %struct.MpegEncContext, ptr %70, i32 0, i32 75
  store i32 1, ptr %71, align 8, !tbaa !123
  %72 = load ptr, ptr %7, align 8, !tbaa !31
  %73 = getelementptr inbounds nuw %struct.MpegEncContext, ptr %72, i32 0, i32 76
  store i32 0, ptr %73, align 4, !tbaa !124
  %74 = load ptr, ptr %7, align 8, !tbaa !31
  %75 = getelementptr inbounds nuw %struct.MpegEncContext, ptr %74, i32 0, i32 42
  %76 = getelementptr inbounds nuw %struct.MPVWorkPicture, ptr %75, i32 0, i32 5
  %77 = load ptr, ptr %76, align 8, !tbaa !122
  %78 = load i32, ptr %10, align 4, !tbaa !36
  %79 = sext i32 %78 to i64
  %80 = getelementptr inbounds i32, ptr %77, i64 %79
  store i32 135176, ptr %80, align 4, !tbaa !36
  %81 = load ptr, ptr %7, align 8, !tbaa !31
  %82 = getelementptr inbounds nuw %struct.MpegEncContext, ptr %81, i32 0, i32 77
  %83 = getelementptr inbounds [2 x [4 x [2 x i32]]], ptr %82, i64 0, i64 0
  %84 = getelementptr inbounds [4 x [2 x i32]], ptr %83, i64 0, i64 0
  %85 = getelementptr inbounds [2 x i32], ptr %84, i64 0, i64 0
  store i32 0, ptr %85, align 8, !tbaa !36
  %86 = load ptr, ptr %7, align 8, !tbaa !31
  %87 = getelementptr inbounds nuw %struct.MpegEncContext, ptr %86, i32 0, i32 77
  %88 = getelementptr inbounds [2 x [4 x [2 x i32]]], ptr %87, i64 0, i64 0
  %89 = getelementptr inbounds [4 x [2 x i32]], ptr %88, i64 0, i64 0
  %90 = getelementptr inbounds [2 x i32], ptr %89, i64 0, i64 1
  store i32 0, ptr %90, align 4, !tbaa !36
  %91 = load ptr, ptr %7, align 8, !tbaa !31
  %92 = getelementptr inbounds nuw %struct.MpegEncContext, ptr %91, i32 0, i32 54
  store i32 1, ptr %92, align 8, !tbaa !133
  %93 = load ptr, ptr %4, align 8, !tbaa !29
  %94 = getelementptr inbounds nuw %struct.H261DecContext, ptr %93, i32 0, i32 1
  %95 = getelementptr inbounds nuw %struct.H261Context, ptr %94, i32 0, i32 0
  %96 = load i32, ptr %95, align 8, !tbaa !134
  %97 = and i32 %96, -513
  store i32 %97, ptr %95, align 8, !tbaa !134
  %98 = load ptr, ptr %7, align 8, !tbaa !31
  %99 = getelementptr inbounds nuw %struct.MpegEncContext, ptr %98, i32 0, i32 42
  %100 = getelementptr inbounds nuw %struct.MPVWorkPicture, ptr %99, i32 0, i32 4
  %101 = getelementptr inbounds [2 x ptr], ptr %100, i64 0, i64 0
  %102 = load ptr, ptr %101, align 8, !tbaa !125
  %103 = icmp ne ptr %102, null
  br i1 %103, label %104, label %153

104:                                              ; preds = %69
  call void @llvm.lifetime.start.p0(i64 4, ptr %11) #8
  %105 = load ptr, ptr %7, align 8, !tbaa !31
  %106 = getelementptr inbounds nuw %struct.MpegEncContext, ptr %105, i32 0, i32 25
  %107 = load i32, ptr %106, align 4, !tbaa !126
  %108 = mul nsw i32 2, %107
  %109 = add nsw i32 %108, 1
  store i32 %109, ptr %11, align 4, !tbaa !36
  call void @llvm.lifetime.start.p0(i64 4, ptr %12) #8
  %110 = load ptr, ptr %7, align 8, !tbaa !31
  %111 = getelementptr inbounds nuw %struct.MpegEncContext, ptr %110, i32 0, i32 82
  %112 = load i32, ptr %111, align 4, !tbaa !81
  %113 = mul nsw i32 2, %112
  %114 = load ptr, ptr %7, align 8, !tbaa !31
  %115 = getelementptr inbounds nuw %struct.MpegEncContext, ptr %114, i32 0, i32 83
  %116 = load i32, ptr %115, align 8, !tbaa !82
  %117 = mul nsw i32 2, %116
  %118 = load i32, ptr %11, align 4, !tbaa !36
  %119 = mul nsw i32 %117, %118
  %120 = add nsw i32 %113, %119
  store i32 %120, ptr %12, align 4, !tbaa !36
  %121 = load ptr, ptr %7, align 8, !tbaa !31
  %122 = getelementptr inbounds nuw %struct.MpegEncContext, ptr %121, i32 0, i32 77
  %123 = getelementptr inbounds [2 x [4 x [2 x i32]]], ptr %122, i64 0, i64 0
  %124 = getelementptr inbounds [4 x [2 x i32]], ptr %123, i64 0, i64 0
  %125 = getelementptr inbounds [2 x i32], ptr %124, i64 0, i64 0
  %126 = load i32, ptr %125, align 8, !tbaa !36
  %127 = trunc i32 %126 to i16
  %128 = load ptr, ptr %7, align 8, !tbaa !31
  %129 = getelementptr inbounds nuw %struct.MpegEncContext, ptr %128, i32 0, i32 42
  %130 = getelementptr inbounds nuw %struct.MPVWorkPicture, ptr %129, i32 0, i32 4
  %131 = getelementptr inbounds [2 x ptr], ptr %130, i64 0, i64 0
  %132 = load ptr, ptr %131, align 8, !tbaa !125
  %133 = load i32, ptr %12, align 4, !tbaa !36
  %134 = sext i32 %133 to i64
  %135 = getelementptr inbounds [2 x i16], ptr %132, i64 %134
  %136 = getelementptr inbounds [2 x i16], ptr %135, i64 0, i64 0
  store i16 %127, ptr %136, align 2, !tbaa !127
  %137 = load ptr, ptr %7, align 8, !tbaa !31
  %138 = getelementptr inbounds nuw %struct.MpegEncContext, ptr %137, i32 0, i32 77
  %139 = getelementptr inbounds [2 x [4 x [2 x i32]]], ptr %138, i64 0, i64 0
  %140 = getelementptr inbounds [4 x [2 x i32]], ptr %139, i64 0, i64 0
  %141 = getelementptr inbounds [2 x i32], ptr %140, i64 0, i64 1
  %142 = load i32, ptr %141, align 4, !tbaa !36
  %143 = trunc i32 %142 to i16
  %144 = load ptr, ptr %7, align 8, !tbaa !31
  %145 = getelementptr inbounds nuw %struct.MpegEncContext, ptr %144, i32 0, i32 42
  %146 = getelementptr inbounds nuw %struct.MPVWorkPicture, ptr %145, i32 0, i32 4
  %147 = getelementptr inbounds [2 x ptr], ptr %146, i64 0, i64 0
  %148 = load ptr, ptr %147, align 8, !tbaa !125
  %149 = load i32, ptr %12, align 4, !tbaa !36
  %150 = sext i32 %149 to i64
  %151 = getelementptr inbounds [2 x i16], ptr %148, i64 %150
  %152 = getelementptr inbounds [2 x i16], ptr %151, i64 0, i64 1
  store i16 %143, ptr %152, align 2, !tbaa !127
  call void @llvm.lifetime.end.p0(i64 4, ptr %12) #8
  call void @llvm.lifetime.end.p0(i64 4, ptr %11) #8
  br label %153

153:                                              ; preds = %104, %69
  %154 = load ptr, ptr %7, align 8, !tbaa !31
  %155 = load ptr, ptr %7, align 8, !tbaa !31
  %156 = getelementptr inbounds nuw %struct.MpegEncContext, ptr %155, i32 0, i32 154
  %157 = load ptr, ptr %156, align 8, !tbaa !129
  call void @ff_mpv_reconstruct_mb(ptr noundef %154, ptr noundef %157)
  call void @llvm.lifetime.end.p0(i64 4, ptr %10) #8
  call void @llvm.lifetime.end.p0(i64 4, ptr %9) #8
  br label %158

158:                                              ; preds = %153
  %159 = load i32, ptr %8, align 4, !tbaa !36
  %160 = add nsw i32 %159, 1
  store i32 %160, ptr %8, align 4, !tbaa !36
  br label %18, !llvm.loop !135

161:                                              ; preds = %18
  call void @llvm.lifetime.end.p0(i64 4, ptr %8) #8
  call void @llvm.lifetime.end.p0(i64 8, ptr %7) #8
  ret i32 0
}