; Function Attrs: nounwind uwtable
define internal fastcc void @h261_decode_mb_skipped(ptr noundef initializes((3360, 3364)) %0, i32 noundef %1, i32 noundef range(i32 -2147483648, 2147483647) %2) unnamed_addr #1 {
  %4 = getelementptr inbounds nuw i8, ptr %0, i64 3360
  store i32 0, ptr %4, align 8, !tbaa !89
  %5 = icmp slt i32 %1, %2
  br i1 %5, label %.lr.ph, label %._crit_edge

.lr.ph:                                           ; preds = %3
  %6 = getelementptr inbounds nuw i8, ptr %0, i64 4828
  %7 = getelementptr inbounds nuw i8, ptr %0, i64 3348
  %8 = getelementptr inbounds nuw i8, ptr %0, i64 3352
  %9 = getelementptr inbounds nuw i8, ptr %0, i64 548
  %10 = getelementptr inbounds nuw i8, ptr %0, i64 472
  %11 = getelementptr inbounds nuw i8, ptr %0, i64 3416
  %12 = getelementptr inbounds nuw i8, ptr %0, i64 3424
  %13 = getelementptr inbounds nuw i8, ptr %0, i64 3432
  %14 = getelementptr i8, ptr %0, i64 20
  %15 = getelementptr inbounds nuw i8, ptr %0, i64 2968
  %16 = getelementptr inbounds nuw i8, ptr %0, i64 2972
  %17 = getelementptr inbounds nuw i8, ptr %0, i64 1240
  %18 = getelementptr inbounds nuw i8, ptr %0, i64 2976
  %19 = getelementptr inbounds nuw i8, ptr %0, i64 2980
  %20 = getelementptr inbounds nuw i8, ptr %0, i64 1400
  %21 = getelementptr inbounds nuw i8, ptr %0, i64 4808
  %22 = getelementptr inbounds nuw i8, ptr %0, i64 1224
  %23 = getelementptr inbounds nuw i8, ptr %0, i64 540
  %24 = getelementptr inbounds nuw i8, ptr %0, i64 4288
  br label %25

25:                                               ; preds = %.lr.ph, %68
  %.043 = phi i32 [ %1, %.lr.ph ], [ %70, %68 ]
  %26 = load i32, ptr %6, align 4, !tbaa !73
  %27 = add nsw i32 %26, -1
  %28 = srem i32 %27, 2
  %29 = mul nsw i32 %28, 11
  %30 = srem i32 %.043, 11
  %31 = add nsw i32 %29, %30
  store i32 %31, ptr %7, align 4, !tbaa !78
  %32 = sdiv i32 %27, 2
  %33 = mul nsw i32 %32, 3
  %34 = sdiv i32 %.043, 11
  %35 = add nsw i32 %33, %34
  store i32 %35, ptr %8, align 8, !tbaa !79
  %36 = load i32, ptr %9, align 4, !tbaa !85
  %37 = load ptr, ptr %10, align 8, !tbaa !69
  %38 = getelementptr inbounds nuw i8, ptr %37, i64 724
  %39 = load i32, ptr %38, align 4, !tbaa !86
  %40 = lshr i32 8, %39
  tail call void @ff_init_block_index(ptr noundef nonnull %0) #5
  %41 = shl nuw nsw i32 %40, 1
  %42 = load ptr, ptr %11, align 8, !tbaa !87
  %43 = zext nneg i32 %41 to i64
  %44 = getelementptr inbounds nuw i8, ptr %42, i64 %43
  store ptr %44, ptr %11, align 8, !tbaa !87
  %45 = load ptr, ptr %12, align 8, !tbaa !87
  %46 = zext nneg i32 %40 to i64
  %47 = getelementptr inbounds nuw i8, ptr %45, i64 %46
  store ptr %47, ptr %12, align 8, !tbaa !87
  %48 = load ptr, ptr %13, align 8, !tbaa !87
  %49 = getelementptr inbounds nuw i8, ptr %48, i64 %46
  store ptr %49, ptr %13, align 8, !tbaa !87
  tail call void @llvm.memset.p0.i64(ptr noundef nonnull align 4 dereferenceable(24) %14, i8 -1, i64 24, i1 false), !tbaa !27
  %50 = mul nsw i32 %35, %36
  %51 = add nsw i32 %50, %31
  store i32 1, ptr %15, align 8, !tbaa !93
  store i32 0, ptr %16, align 4, !tbaa !94
  %52 = load ptr, ptr %17, align 8, !tbaa !92
  %53 = sext i32 %51 to i64
  %54 = getelementptr inbounds i32, ptr %52, i64 %53
  store i32 135176, ptr %54, align 4, !tbaa !27
  store i32 0, ptr %18, align 8, !tbaa !27
  store i32 0, ptr %19, align 4, !tbaa !27
  store i32 1, ptr %20, align 8, !tbaa !116
  %55 = load i32, ptr %21, align 8, !tbaa !117
  %56 = and i32 %55, -513
  store i32 %56, ptr %21, align 8, !tbaa !117
  %57 = load ptr, ptr %22, align 8, !tbaa !95
  %.not = icmp eq ptr %57, null
  br i1 %.not, label %68, label %58

58:                                               ; preds = %25
  %59 = load i32, ptr %23, align 4, !tbaa !96
  %60 = shl nsw i32 %59, 1
  %61 = or disjoint i32 %60, 1
  %62 = load i32, ptr %7, align 4, !tbaa !78
  %63 = load i32, ptr %8, align 8, !tbaa !79
  %64 = mul i32 %61, %63
  %reass.add = add i32 %64, %62
  %reass.mul = shl i32 %reass.add, 1
  %65 = sext i32 %reass.mul to i64
  %66 = getelementptr inbounds [2 x i16], ptr %57, i64 %65
  store i16 0, ptr %66, align 2, !tbaa !97
  %67 = getelementptr inbounds [2 x i16], ptr %57, i64 %65, i64 1
  store i16 0, ptr %67, align 2, !tbaa !97
  br label %68

68:                                               ; preds = %58, %25
  %69 = load ptr, ptr %24, align 8, !tbaa !98
  tail call void @ff_mpv_reconstruct_mb(ptr noundef nonnull %0, ptr noundef %69) #5
  %70 = add i32 %.043, 1
  %exitcond.not = icmp eq i32 %70, %2
  br i1 %exitcond.not, label %._crit_edge, label %25, !llvm.loop !118

._crit_edge:                                      ; preds = %68, %3
  ret void
}